; Function Attrs: mustprogress uwtable
define hidden noundef nonnull ptr @_ZNK6google8protobuf8compiler4java25ImmutableGeneratorFactory21NewExtensionGeneratorEPKNS0_15FieldDescriptorE(ptr nocapture noundef nonnull readonly align 8 dereferenceable(16) %this, ptr noundef %descriptor) unnamed_addr #9 align 2 personality ptr @__gxx_personality_v0 {
entry:
  %context_ = getelementptr inbounds i8, ptr %this, i64 8
  %0 = load ptr, ptr %context_, align 8
  %enforce_lite.i = getelementptr inbounds i8, ptr %0, i64 75
  %1 = load i8, ptr %enforce_lite.i, align 1
  %2 = and i8 %1, 1
  %tobool.i.not = icmp eq i8 %2, 0
  %call4 = tail call noalias noundef nonnull dereferenceable(64) ptr @_Znwm(i64 noundef 64) #14
  br i1 %tobool.i.not, label %if.then, label %if.else

if.then:                                          ; preds = %entry
  invoke void @_ZN6google8protobuf8compiler4java27ImmutableExtensionGeneratorC1EPKNS0_15FieldDescriptorEPNS2_7ContextE(ptr noundef nonnull align 8 dereferenceable(64) %call4, ptr noundef nonnull %descriptor, ptr noundef nonnull %0)
          to label %return unwind label %lpad

lpad:                                             ; preds = %if.then
  %3 = landingpad { ptr, i32 }
          cleanup
  br label %eh.resume

if.else:                                          ; preds = %entry
  invoke void @_ZN6google8protobuf8compiler4java31ImmutableExtensionLiteGeneratorC1EPKNS0_15FieldDescriptorEPNS2_7ContextE(ptr noundef nonnull align 8 dereferenceable(64) %call4, ptr noundef nonnull %descriptor, ptr noundef nonnull %0)
          to label %return unwind label %lpad8

lpad8:                                            ; preds = %if.else
  %4 = landingpad { ptr, i32 }
          cleanup
  br label %eh.resume

return:                                           ; preds = %if.else, %if.then
  ret ptr %call4

eh.resume:                                        ; preds = %lpad8, %lpad
  %.pn = phi { ptr, i32 } [ %3, %lpad ], [ %4, %lpad8 ]
  tail call void @_ZdlPv(ptr noundef nonnull %call4) #13
  resume { ptr, i32 } %.pn
}